; Function Attrs: mustprogress nounwind uwtable
define internal void @_ZN2cv9videostab12_GLOBAL__N_119VideoFileSourceImplD0Ev(ptr noundef nonnull align 8 dereferenceable(96) %0) unnamed_addr #6 align 2 {
  store ptr getelementptr inbounds inrange(-16, 32) (i8, ptr @_ZTVN2cv9videostab12_GLOBAL__N_119VideoFileSourceImplE, i64 16), ptr %0, align 8
  %2 = getelementptr inbounds i8, ptr %0, i64 48
  tail call void @_ZN2cv12VideoCaptureD1Ev(ptr noundef nonnull align 8 dereferenceable(41) %2) #13
  %3 = getelementptr inbounds i8, ptr %0, i64 8
  tail call void @_ZNSt7__cxx1112basic_stringIcSt11char_traitsIcESaIcEED1Ev(ptr noundef nonnull align 8 dereferenceable(32) %3) #13
  tail call void @_ZdlPv(ptr noundef nonnull %0) #16
  ret void
}